; Function Attrs: mustprogress nounwind uwtable
define dso_local { ptr, i32 } @_ZNSt3__18to_charsEPcS0_f(ptr noundef %0, ptr noundef %1, float noundef %2) local_unnamed_addr #4 personality ptr @__gxx_personality_v0 {
  %4 = bitcast float %2 to i32
  %5 = icmp slt i32 %4, 0
  br i1 %5, label %6, label %15

6:                                                ; preds = %3
  %7 = icmp eq ptr %0, %1
  br i1 %7, label %8, label %11

8:                                                ; preds = %6
  %9 = insertvalue { ptr, i32 } poison, ptr %1, 0
  %10 = insertvalue { ptr, i32 } %9, i32 75, 1
  br label %_ZNSt3__118_Floating_to_charsB8ne210000ILNS_27_Floating_to_chars_overloadE0EfEENS_15to_chars_resultEPcS3_T0_NS_12chars_formatEi.exit

11:                                               ; preds = %6
  %12 = getelementptr inbounds nuw i8, ptr %0, i64 1
  store i8 45, ptr %0, align 1, !tbaa !4
  %13 = tail call float @llvm.fabs.f32(float %2)
  %14 = bitcast float %13 to i32
  br label %15

15:                                               ; preds = %11, %3
  %.029.i = phi float [ %13, %11 ], [ %2, %3 ]
  %.028.i = phi i32 [ %14, %11 ], [ %4, %3 ]
  %.021.i = phi ptr [ %12, %11 ], [ %0, %3 ]
  %16 = and i32 %.028.i, 2139095040
  %17 = icmp eq i32 %16, 2139095040
  br i1 %17, label %18, label %35

18:                                               ; preds = %15
  %19 = and i32 %.028.i, 8388607
  %20 = icmp eq i32 %19, 0
  br i1 %20, label %25, label %21

21:                                               ; preds = %18
  %22 = icmp eq i32 %19, 4194304
  %or.cond.i = and i1 %5, %22
  br i1 %or.cond.i, label %25, label %23

23:                                               ; preds = %21
  %24 = and i32 %.028.i, 4194304
  %.not.i = icmp eq i32 %24, 0
  %.str.3..str.2.i = select i1 %.not.i, ptr @.str.3, ptr @.str.2
  %..i = select i1 %.not.i, i64 9, i64 3
  br label %25

25:                                               ; preds = %23, %21, %18
  %.020.i = phi ptr [ @.str, %18 ], [ @.str.1, %21 ], [ %.str.3..str.2.i, %23 ]
  %.0.i = phi i64 [ 3, %18 ], [ 8, %21 ], [ %..i, %23 ]
  %26 = ptrtoint ptr %1 to i64
  %27 = ptrtoint ptr %.021.i to i64
  %28 = sub i64 %26, %27
  %29 = icmp slt i64 %28, %.0.i
  br i1 %29, label %32, label %30

30:                                               ; preds = %25
  tail call void @llvm.memcpy.p0.p0.i64(ptr noundef nonnull align 1 dereferenceable(1) %.021.i, ptr noundef nonnull align 1 dereferenceable(1) %.020.i, i64 %.0.i, i1 false)
  %31 = getelementptr inbounds nuw i8, ptr %.021.i, i64 %.0.i
  br label %32

32:                                               ; preds = %30, %25
  %.sroa.0.1.i = phi ptr [ %31, %30 ], [ %1, %25 ]
  %.sroa.5.1.i = phi i32 [ 0, %30 ], [ 75, %25 ]
  %33 = insertvalue { ptr, i32 } poison, ptr %.sroa.0.1.i, 0
  %34 = insertvalue { ptr, i32 } %33, i32 %.sroa.5.1.i, 1
  br label %_ZNSt3__118_Floating_to_charsB8ne210000ILNS_27_Floating_to_chars_overloadE0EfEENS_15to_chars_resultEPcS3_T0_NS_12chars_formatEi.exit

35:                                               ; preds = %15
  %36 = invoke { ptr, i32 } @_ZNSt3__116__f2s_buffered_nB8ne210000EPcS0_fNS_12chars_formatE(ptr noundef %.021.i, ptr noundef %1, float noundef %.029.i, i32 noundef 0)
          to label %_ZNSt3__118_Floating_to_charsB8ne210000ILNS_27_Floating_to_chars_overloadE0EfEENS_15to_chars_resultEPcS3_T0_NS_12chars_formatEi.exit unwind label %37

37:                                               ; preds = %35
  %38 = landingpad { ptr, i32 }
          catch ptr null
  %39 = extractvalue { ptr, i32 } %38, 0
  tail call void @__clang_call_terminate(ptr %39) #20
  unreachable

_ZNSt3__118_Floating_to_charsB8ne210000ILNS_27_Floating_to_chars_overloadE0EfEENS_15to_chars_resultEPcS3_T0_NS_12chars_formatEi.exit: ; preds = %8, %32, %35
  %.fca.1.insert.merged.i = phi { ptr, i32 } [ %10, %8 ], [ %34, %32 ], [ %36, %35 ]
  ret { ptr, i32 } %.fca.1.insert.merged.i
}